target datalayout = "e-m:e-p270:32:32-p271:32:32-p272:64:64-i64:64-i128:128-f80:128-n8:16:32:64-S128"
target triple = "x86_64-pc-linux-gnu"

%struct.AVCodecContext = type { ptr, i32, i32, ptr, i32, i32, ptr, ptr, ptr, i64, i32, i32, ptr, i32, %struct.AVRational, %struct.AVRational, %struct.AVRational, i32, i32, i32, i32, i32, %struct.AVRational, i32, i32, i32, i32, i32, i32, i32, i32, i32, i32, i32, ptr, ptr, i32, float, float, float, float, float, float, float, float, float, i32, i32, i32, i32, i32, i32, i32, i32, i32, i32, i32, i32, ptr, ptr, ptr, i32, i32, i32, i32, i32, i32, i32, i32, i32, i32, %struct.AVChannelLayout, i32, i32, i32, i32, i32, i32, i32, i32, ptr, i32, i32, i32, float, float, i32, i32, i32, i32, i32, ptr, i64, i64, float, float, i32, i32, ptr, ptr, i32, i32, i32, i32, i32, ptr, ptr, ptr, ptr, i32, i32, [8 x i64], i32, i32, i32, i32, i32, i32, i32, ptr, ptr, i32, i32, i32, i32, i32, i32, i32, i32, i32, i32, ptr, ptr, i32, i32, ptr, ptr, ptr, ptr, i32, i32, i64, i32, i32, i64, ptr, i64, ptr, i32, ptr, i32 }
%struct.AVRational = type { i32, i32 }
%struct.AVChannelLayout = type { i32, i32, %union.anon.1, ptr }
%union.anon.1 = type { i64 }
%struct.VAAPIEncodeContext = type { %struct.FFHWBaseEncodeContext, ptr, i32, i32, i32, i32, i32, i32, ptr, ptr, i32, i32, i32, i32, i32, i32, [4 x %struct._VAConfigAttrib], i32, i32, i32, ptr, ptr, [4 x i32], [4 x ptr], [4 x i64], i32, %struct._VAEncMiscParameterRateControl, %struct._VAEncMiscParameterHRD, %struct._VAEncMiscParameterFrameRate, %struct._VAEncMiscParameterBufferMaxFrameSize, %struct._VAEncMiscParameterBufferQualityLevel, ptr, ptr, i32, i32, i32, i32, i32, i32, [20 x i32], [22 x i32], [21 x i32], [23 x i32], i32, i32, ptr, i32, i32 }
%struct.FFHWBaseEncodeContext = type { ptr, ptr, ptr, i32, i32, i32, i32, i32, i32, ptr, ptr, ptr, ptr, ptr, ptr, ptr, ptr, [2 x ptr], i32, i64, i64, i64, i64, i64, i64, i64, [112 x i64], i32, i32, i32, i32, i32, i32, i32, i32, i32, i32, i32, i32, i32, i32, i32, i32, ptr, i32, ptr, i32, ptr }
%struct._VAConfigAttrib = type { i32, i32 }
%struct._VAEncMiscParameterRateControl = type { i32, i32, i32, i32, i32, i32, %union.anon.2, i32, i32, i32, i32, [4 x i32] }
%union.anon.2 = type { %struct.anon }
%struct.anon = type { i32 }
%struct._VAEncMiscParameterHRD = type { i32, i32, [4 x i32] }
%struct._VAEncMiscParameterFrameRate = type { i32, %union.anon.3, [4 x i32] }
%union.anon.3 = type { %struct.anon.4 }
%struct.anon.4 = type { i32 }
%struct._VAEncMiscParameterBufferMaxFrameSize = type { i32, i32, [4 x i32] }
%struct._VAEncMiscParameterBufferQualityLevel = type { i32, [4 x i32] }
%struct.VAAPIEncodeMJPEGContext = type { %struct.VAAPIEncodeContext, i32, i32, i32, [14 x i8], %struct.JPEGRawFrameHeader, %struct.JPEGRawScan, %struct.JPEGRawApplicationData, %struct.JPEGRawQuantisationTableSpecification, %struct.JPEGRawHuffmanTableSpecification, ptr, %struct.CodedBitstreamFragment }
%struct.JPEGRawFrameHeader = type { i16, i8, i16, i16, i16, [255 x i8], [255 x i8], [255 x i8], [255 x i8] }
%struct.JPEGRawScan = type { %struct.JPEGRawScanHeader, ptr, ptr, i64 }
%struct.JPEGRawScanHeader = type { i16, i8, [255 x i8], [255 x i8], [255 x i8], i8, i8, i8, i8 }
%struct.JPEGRawApplicationData = type { i16, ptr, ptr }
%struct.JPEGRawQuantisationTableSpecification = type { i16, [4 x %struct.JPEGRawQuantisationTable] }
%struct.JPEGRawQuantisationTable = type { i8, i8, [64 x i16] }
%struct.JPEGRawHuffmanTableSpecification = type { i16, [8 x %struct.JPEGRawHuffmanTable] }
%struct.JPEGRawHuffmanTable = type { i8, i8, [16 x i8], [256 x i8] }
%struct.CodedBitstreamFragment = type { ptr, i64, i64, ptr, i32, i32, ptr }
%struct._VAEncSliceParameterBufferJPEG = type { i16, i16, [4 x %struct.anon.7], [4 x i32] }
%struct.anon.7 = type { i8, i8, i8 }
%struct.VAAPIEncodeSlice = type { i32, i32, i32, i32, i32, ptr }

; Function Attrs: nounwind uwtable
define internal i32 @vaapi_encode_mjpeg_init_slice_params(ptr noundef %0, ptr noundef %1, ptr noundef %2) #3 {
  %4 = alloca ptr, align 8
  %5 = alloca ptr, align 8
  %6 = alloca ptr, align 8
  %7 = alloca ptr, align 8
  %8 = alloca ptr, align 8
  %9 = alloca ptr, align 8
  %10 = alloca i32, align 4
  %11 = alloca %struct._VAEncSliceParameterBufferJPEG, align 4
  store ptr %0, ptr %4, align 8, !tbaa !4
  store ptr %1, ptr %5, align 8, !tbaa !84
  store ptr %2, ptr %6, align 8, !tbaa !160
  call void @llvm.lifetime.start.p0(i64 8, ptr %7) #9
  %12 = load ptr, ptr %4, align 8, !tbaa !4
  %13 = getelementptr inbounds nuw %struct.AVCodecContext, ptr %12, i32 0, i32 6
  %14 = load ptr, ptr %13, align 8, !tbaa !9
  store ptr %14, ptr %7, align 8, !tbaa !52
  call void @llvm.lifetime.start.p0(i64 8, ptr %8) #9
  %15 = load ptr, ptr %7, align 8, !tbaa !52
  %16 = getelementptr inbounds nuw %struct.VAAPIEncodeMJPEGContext, ptr %15, i32 0, i32 6
  %17 = getelementptr inbounds nuw %struct.JPEGRawScan, ptr %16, i32 0, i32 0
  store ptr %17, ptr %8, align 8, !tbaa !91
  call void @llvm.lifetime.start.p0(i64 8, ptr %9) #9
  %18 = load ptr, ptr %6, align 8, !tbaa !160
  %19 = getelementptr inbounds nuw %struct.VAAPIEncodeSlice, ptr %18, i32 0, i32 5
  %20 = load ptr, ptr %19, align 8, !tbaa !161
  store ptr %20, ptr %9, align 8, !tbaa !163
  call void @llvm.lifetime.start.p0(i64 4, ptr %10) #9
  %21 = load ptr, ptr %9, align 8, !tbaa !163
  call void @llvm.memset.p0.i64(ptr align 4 %11, i8 0, i64 32, i1 false)
  %22 = getelementptr inbounds nuw %struct._VAEncSliceParameterBufferJPEG, ptr %11, i32 0, i32 1
  %23 = load ptr, ptr %8, align 8, !tbaa !91
  %24 = getelementptr inbounds nuw %struct.JPEGRawScanHeader, ptr %23, i32 0, i32 1
  %25 = load i8, ptr %24, align 2, !tbaa !139
  %26 = zext i8 %25 to i16
  store i16 %26, ptr %22, align 2, !tbaa !165
  call void @llvm.memcpy.p0.p0.i64(ptr align 4 %21, ptr align 4 %11, i64 32, i1 false), !tbaa.struct !167
  store i32 0, ptr %10, align 4, !tbaa !83
  br label %27

27:                                               ; preds = %71, %3
  %28 = load i32, ptr %10, align 4, !tbaa !83
  %29 = load ptr, ptr %8, align 8, !tbaa !91
  %30 = getelementptr inbounds nuw %struct.JPEGRawScanHeader, ptr %29, i32 0, i32 1
  %31 = load i8, ptr %30, align 2, !tbaa !139
  %32 = zext i8 %31 to i32
  %33 = icmp slt i32 %28, %32
  br i1 %33, label %34, label %74

34:                                               ; preds = %27
  %35 = load ptr, ptr %8, align 8, !tbaa !91
  %36 = getelementptr inbounds nuw %struct.JPEGRawScanHeader, ptr %35, i32 0, i32 2
  %37 = load i32, ptr %10, align 4, !tbaa !83
  %38 = sext i32 %37 to i64
  %39 = getelementptr inbounds [255 x i8], ptr %36, i64 0, i64 %38
  %40 = load i8, ptr %39, align 1, !tbaa !107
  %41 = load ptr, ptr %9, align 8, !tbaa !163
  %42 = getelementptr inbounds nuw %struct._VAEncSliceParameterBufferJPEG, ptr %41, i32 0, i32 2
  %43 = load i32, ptr %10, align 4, !tbaa !83
  %44 = sext i32 %43 to i64
  %45 = getelementptr inbounds [4 x %struct.anon.7], ptr %42, i64 0, i64 %44
  %46 = getelementptr inbounds nuw %struct.anon.7, ptr %45, i32 0, i32 0
  store i8 %40, ptr %46, align 1, !tbaa !168
  %47 = load ptr, ptr %8, align 8, !tbaa !91
  %48 = getelementptr inbounds nuw %struct.JPEGRawScanHeader, ptr %47, i32 0, i32 3
  %49 = load i32, ptr %10, align 4, !tbaa !83
  %50 = sext i32 %49 to i64
  %51 = getelementptr inbounds [255 x i8], ptr %48, i64 0, i64 %50
  %52 = load i8, ptr %51, align 1, !tbaa !107
  %53 = load ptr, ptr %9, align 8, !tbaa !163
  %54 = getelementptr inbounds nuw %struct._VAEncSliceParameterBufferJPEG, ptr %53, i32 0, i32 2
  %55 = load i32, ptr %10, align 4, !tbaa !83
  %56 = sext i32 %55 to i64
  %57 = getelementptr inbounds [4 x %struct.anon.7], ptr %54, i64 0, i64 %56
  %58 = getelementptr inbounds nuw %struct.anon.7, ptr %57, i32 0, i32 1
  store i8 %52, ptr %58, align 1, !tbaa !170
  %59 = load ptr, ptr %8, align 8, !tbaa !91
  %60 = getelementptr inbounds nuw %struct.JPEGRawScanHeader, ptr %59, i32 0, i32 4
  %61 = load i32, ptr %10, align 4, !tbaa !83
  %62 = sext i32 %61 to i64
  %63 = getelementptr inbounds [255 x i8], ptr %60, i64 0, i64 %62
  %64 = load i8, ptr %63, align 1, !tbaa !107
  %65 = load ptr, ptr %9, align 8, !tbaa !163
  %66 = getelementptr inbounds nuw %struct._VAEncSliceParameterBufferJPEG, ptr %65, i32 0, i32 2
  %67 = load i32, ptr %10, align 4, !tbaa !83
  %68 = sext i32 %67 to i64
  %69 = getelementptr inbounds [4 x %struct.anon.7], ptr %66, i64 0, i64 %68
  %70 = getelementptr inbounds nuw %struct.anon.7, ptr %69, i32 0, i32 2
  store i8 %64, ptr %70, align 1, !tbaa !171
  br label %71

71:                                               ; preds = %34
  %72 = load i32, ptr %10, align 4, !tbaa !83
  %73 = add nsw i32 %72, 1
  store i32 %73, ptr %10, align 4, !tbaa !83
  br label %27, !llvm.loop !172

74:                                               ; preds = %27
  call void @llvm.lifetime.end.p0(i64 4, ptr %10) #9
  call void @llvm.lifetime.end.p0(i64 8, ptr %9) #9
  call void @llvm.lifetime.end.p0(i64 8, ptr %8) #9
  call void @llvm.lifetime.end.p0(i64 8, ptr %7) #9
  ret i32 0
}