; Function Attrs: nofree norecurse nosync nounwind memory(readwrite, inaccessiblemem: none) uwtable
define internal noundef i32 @vaapi_encode_mjpeg_init_slice_params(ptr noundef readonly captures(none) %0, ptr readnone captures(none) %1, ptr noundef readonly captures(none) %2) #4 {
  %4 = getelementptr inbounds nuw i8, ptr %0, i64 32
  %5 = load ptr, ptr %4, align 8, !tbaa !4
  %6 = getelementptr inbounds nuw i8, ptr %2, i64 24
  %7 = load ptr, ptr %6, align 8, !tbaa !121
  %8 = getelementptr inbounds nuw i8, ptr %5, i64 3034
  %9 = load i8, ptr %8, align 2, !tbaa !110
  %10 = zext i8 %9 to i16
  store i16 0, ptr %7, align 4, !tbaa !99
  %.sroa.2.0..sroa_idx = getelementptr inbounds nuw i8, ptr %7, i64 2
  store i16 %10, ptr %.sroa.2.0..sroa_idx, align 2, !tbaa !99
  %.sroa.3.0..sroa_idx = getelementptr inbounds nuw i8, ptr %7, i64 4
  tail call void @llvm.memset.p0.i64(ptr noundef nonnull align 4 dereferenceable(28) %.sroa.3.0..sroa_idx, i8 0, i64 28, i1 false)
  %11 = load i8, ptr %8, align 2, !tbaa !110
  %.not = icmp eq i8 %11, 0
  br i1 %.not, label %._crit_edge, label %.lr.ph

.lr.ph:                                           ; preds = %3
  %12 = getelementptr inbounds nuw i8, ptr %5, i64 3035
  %13 = getelementptr inbounds nuw i8, ptr %5, i64 3290
  %14 = getelementptr inbounds nuw i8, ptr %5, i64 3545
  %wide.trip.count = zext i8 %11 to i64
  br label %15

15:                                               ; preds = %.lr.ph, %15
  %indvars.iv = phi i64 [ 0, %.lr.ph ], [ %indvars.iv.next, %15 ]
  %16 = getelementptr inbounds nuw [255 x i8], ptr %12, i64 0, i64 %indvars.iv
  %17 = load i8, ptr %16, align 1, !tbaa !86
  %18 = getelementptr inbounds nuw [4 x %struct.anon.7], ptr %.sroa.3.0..sroa_idx, i64 0, i64 %indvars.iv
  store i8 %17, ptr %18, align 1, !tbaa !123
  %19 = getelementptr inbounds nuw [255 x i8], ptr %13, i64 0, i64 %indvars.iv
  %20 = load i8, ptr %19, align 1, !tbaa !86
  %21 = getelementptr inbounds nuw i8, ptr %18, i64 1
  store i8 %20, ptr %21, align 1, !tbaa !125
  %22 = getelementptr inbounds nuw [255 x i8], ptr %14, i64 0, i64 %indvars.iv
  %23 = load i8, ptr %22, align 1, !tbaa !86
  %24 = getelementptr inbounds nuw i8, ptr %18, i64 2
  store i8 %23, ptr %24, align 1, !tbaa !126
  %indvars.iv.next = add nuw nsw i64 %indvars.iv, 1
  %exitcond.not = icmp eq i64 %indvars.iv.next, %wide.trip.count
  br i1 %exitcond.not, label %._crit_edge, label %15, !llvm.loop !127

._crit_edge:                                      ; preds = %15, %3
  ret i32 0
}